target datalayout = "e-m:e-p270:32:32-p271:32:32-p272:64:64-i64:64-i128:128-f80:128-n8:16:32:64-S128"
target triple = "x86_64-pc-linux-gnu"

%"struct.cv::hal::cpu_baseline::(anonymous namespace)::RGB2HSV_b::TablesSingleton" = type { [256 x i32], [256 x i32], [256 x i32] }

; Function Attrs: mustprogress uwtable
define internal noundef i32 @_ZL7cvRoundd(double noundef %0) #6 {
  %2 = alloca <2 x double>, align 16
  %3 = alloca double, align 8
  %4 = alloca <2 x double>, align 16
  %5 = alloca double, align 8
  %6 = alloca <2 x double>, align 16
  store double %0, ptr %5, align 8
  %7 = load double, ptr %5, align 8
  store double %7, ptr %3, align 8
  %8 = load double, ptr %3, align 8
  %9 = insertelement <2 x double> poison, double %8, i32 0
  %10 = insertelement <2 x double> %9, double 0.000000e+00, i32 1
  store <2 x double> %10, ptr %4, align 16
  %11 = load <2 x double>, ptr %4, align 16
  store <2 x double> %11, ptr %6, align 16
  %12 = load <2 x double>, ptr %6, align 16
  store <2 x double> %12, ptr %2, align 16
  %13 = load <2 x double>, ptr %2, align 16
  %14 = call noundef i32 @llvm.x86.sse2.cvtsd2si(<2 x double> %13)
  ret i32 %14
}

; Function Attrs: mustprogress uwtable
define internal noundef i32 @_ZN2cvL13saturate_castIiEET_d(double noundef %0) #0 {
  %2 = alloca double, align 8
  store double %0, ptr %2, align 8
  %3 = load double, ptr %2, align 8
  %4 = call noundef i32 @_ZL7cvRoundd(double noundef %3)
  ret i32 %4
}

; Function Attrs: mustprogress uwtable
define internal void @_ZN2cv3hal12cpu_baseline12_GLOBAL__N_19RGB2HSV_b15TablesSingletonC2Ev(ptr noundef nonnull align 4 dereferenceable(3072) %0) unnamed_addr #0 align 2 {
  %2 = alloca ptr, align 8
  %3 = alloca i32, align 4
  %4 = alloca i32, align 4
  store ptr %0, ptr %2, align 8
  %5 = load ptr, ptr %2, align 8
  store i32 12, ptr %3, align 4
  %6 = getelementptr inbounds %"struct.cv::hal::cpu_baseline::(anonymous namespace)::RGB2HSV_b::TablesSingleton", ptr %5, i32 0, i32 2
  %7 = getelementptr inbounds [256 x i32], ptr %6, i64 0, i64 0
  store i32 0, ptr %7, align 4
  %8 = getelementptr inbounds %"struct.cv::hal::cpu_baseline::(anonymous namespace)::RGB2HSV_b::TablesSingleton", ptr %5, i32 0, i32 1
  %9 = getelementptr inbounds [256 x i32], ptr %8, i64 0, i64 0
  store i32 0, ptr %9, align 4
  %10 = getelementptr inbounds %"struct.cv::hal::cpu_baseline::(anonymous namespace)::RGB2HSV_b::TablesSingleton", ptr %5, i32 0, i32 0
  %11 = getelementptr inbounds [256 x i32], ptr %10, i64 0, i64 0
  store i32 0, ptr %11, align 4
  store i32 1, ptr %4, align 4
  br label %12

12:                                               ; preds = %43, %1
  %13 = load i32, ptr %4, align 4
  %14 = icmp slt i32 %13, 256
  br i1 %14, label %15, label %46

15:                                               ; preds = %12
  %16 = load i32, ptr %4, align 4
  %17 = sitofp i32 %16 to double
  %18 = fmul double 1.000000e+00, %17
  %19 = fdiv double 1.044480e+06, %18
  %20 = call noundef i32 @_ZN2cvL13saturate_castIiEET_d(double noundef %19)
  %21 = getelementptr inbounds %"struct.cv::hal::cpu_baseline::(anonymous namespace)::RGB2HSV_b::TablesSingleton", ptr %5, i32 0, i32 0
  %22 = load i32, ptr %4, align 4
  %23 = sext i32 %22 to i64
  %24 = getelementptr inbounds [256 x i32], ptr %21, i64 0, i64 %23
  store i32 %20, ptr %24, align 4
  %25 = load i32, ptr %4, align 4
  %26 = sitofp i32 %25 to double
  %27 = fmul double 6.000000e+00, %26
  %28 = fdiv double 7.372800e+05, %27
  %29 = call noundef i32 @_ZN2cvL13saturate_castIiEET_d(double noundef %28)
  %30 = getelementptr inbounds %"struct.cv::hal::cpu_baseline::(anonymous namespace)::RGB2HSV_b::TablesSingleton", ptr %5, i32 0, i32 1
  %31 = load i32, ptr %4, align 4
  %32 = sext i32 %31 to i64
  %33 = getelementptr inbounds [256 x i32], ptr %30, i64 0, i64 %32
  store i32 %29, ptr %33, align 4
  %34 = load i32, ptr %4, align 4
  %35 = sitofp i32 %34 to double
  %36 = fmul double 6.000000e+00, %35
  %37 = fdiv double 0x4130000000000000, %36
  %38 = call noundef i32 @_ZN2cvL13saturate_castIiEET_d(double noundef %37)
  %39 = getelementptr inbounds %"struct.cv::hal::cpu_baseline::(anonymous namespace)::RGB2HSV_b::TablesSingleton", ptr %5, i32 0, i32 2
  %40 = load i32, ptr %4, align 4
  %41 = sext i32 %40 to i64
  %42 = getelementptr inbounds [256 x i32], ptr %39, i64 0, i64 %41
  store i32 %38, ptr %42, align 4
  br label %43

43:                                               ; preds = %15
  %44 = load i32, ptr %4, align 4
  %45 = add nsw i32 %44, 1
  store i32 %45, ptr %4, align 4
  br label %12, !llvm.loop !5

46:                                               ; preds = %12
  ret void
}