; Function Attrs: mustprogress nofree norecurse nosync nounwind memory(write, argmem: none, inaccessiblemem: none) uwtable
define internal fastcc void @_ZN2cv3hal12cpu_baseline12_GLOBAL__N_19RGB2HSV_b15TablesSingletonC2Ev() unnamed_addr #6 align 2 {
  store i32 0, ptr getelementptr inbounds (i8, ptr @_ZZN2cv3hal12cpu_baseline12_GLOBAL__N_19RGB2HSV_b15TablesSingleton11getInstanceEvE8g_tables, i64 2048), align 4
  store i32 0, ptr getelementptr inbounds (i8, ptr @_ZZN2cv3hal12cpu_baseline12_GLOBAL__N_19RGB2HSV_b15TablesSingleton11getInstanceEvE8g_tables, i64 1024), align 4
  store i32 0, ptr @_ZZN2cv3hal12cpu_baseline12_GLOBAL__N_19RGB2HSV_b15TablesSingleton11getInstanceEvE8g_tables, align 4
  br label %1

1:                                                ; preds = %0, %1
  %indvars.iv = phi i64 [ 1, %0 ], [ %indvars.iv.next, %1 ]
  %2 = trunc nuw nsw i64 %indvars.iv to i32
  %3 = uitofp nneg i32 %2 to double
  %4 = fdiv double 1.044480e+06, %3
  %5 = insertelement <2 x double> poison, double %4, i64 0
  %6 = tail call noundef i32 @llvm.x86.sse2.cvtsd2si(<2 x double> %5)
  %7 = getelementptr inbounds [256 x i32], ptr @_ZZN2cv3hal12cpu_baseline12_GLOBAL__N_19RGB2HSV_b15TablesSingleton11getInstanceEvE8g_tables, i64 0, i64 %indvars.iv
  store i32 %6, ptr %7, align 4
  %8 = trunc i64 %indvars.iv to i32
  %9 = mul i32 %8, 6
  %10 = uitofp nneg i32 %9 to double
  %11 = fdiv double 7.372800e+05, %10
  %12 = insertelement <2 x double> poison, double %11, i64 0
  %13 = tail call noundef i32 @llvm.x86.sse2.cvtsd2si(<2 x double> %12)
  %14 = getelementptr inbounds [256 x i32], ptr getelementptr inbounds (i8, ptr @_ZZN2cv3hal12cpu_baseline12_GLOBAL__N_19RGB2HSV_b15TablesSingleton11getInstanceEvE8g_tables, i64 1024), i64 0, i64 %indvars.iv
  store i32 %13, ptr %14, align 4
  %15 = fdiv double 0x4130000000000000, %10
  %16 = insertelement <2 x double> poison, double %15, i64 0
  %17 = tail call noundef i32 @llvm.x86.sse2.cvtsd2si(<2 x double> %16)
  %18 = getelementptr inbounds [256 x i32], ptr getelementptr inbounds (i8, ptr @_ZZN2cv3hal12cpu_baseline12_GLOBAL__N_19RGB2HSV_b15TablesSingleton11getInstanceEvE8g_tables, i64 2048), i64 0, i64 %indvars.iv
  store i32 %17, ptr %18, align 4
  %indvars.iv.next = add nuw nsw i64 %indvars.iv, 1
  %exitcond.not = icmp eq i64 %indvars.iv.next, 256
  br i1 %exitcond.not, label %19, label %1, !llvm.loop !17

19:                                               ; preds = %1
  ret void
}